target datalayout = "e-m:e-p270:32:32-p271:32:32-p272:64:64-i64:64-i128:128-f80:128-n8:16:32:64-S128"
target triple = "x86_64-pc-linux-gnu"

%struct.Abc_Frame_t_ = type { ptr, ptr, ptr, ptr, ptr, ptr, ptr, ptr, ptr, ptr, i32, i32, i32, i32, i32, ptr, float, float, i32, i32, ptr, ptr, ptr, double, double, ptr, ptr, ptr, ptr, ptr, ptr, ptr, ptr, ptr, ptr, ptr, ptr, float, ptr, i32, ptr, ptr, ptr, ptr, ptr, i32, i32, i32, i32, i32, i32, ptr, ptr, ptr, ptr, ptr, ptr, i32, i32, ptr, ptr, ptr, ptr, ptr, ptr, ptr, ptr, ptr, ptr, ptr, ptr, ptr, ptr, ptr, ptr, ptr, ptr, ptr, ptr, ptr, ptr, ptr, ptr, ptr, ptr, ptr, ptr, ptr, ptr }

@globalUtilOptind = external global i32, align 4
@.str.113 = private unnamed_addr constant [4 x i8] c"yes\00", align 1
@.str.114 = private unnamed_addr constant [3 x i8] c"no\00", align 1
@.str.118 = private unnamed_addr constant [38 x i8] c"\09-h     : prints the command summary\0A\00", align 1
@.str.119 = private unnamed_addr constant [38 x i8] c"\09file   : the name of a file to read\0A\00", align 1
@.str.189 = private unnamed_addr constant [4 x i8] c"mvh\00", align 1
@.str.190 = private unnamed_addr constant [33 x i8] c"usage: read_plamo [-mvh] <file>\0A\00", align 1
@.str.191 = private unnamed_addr constant [49 x i8] c"\09         reads the network in multi-output PLA\0A\00", align 1
@.str.192 = private unnamed_addr constant [79 x i8] c"\09-m     : toggle dist-1 merge for cubes with identical outputs [default = %s]\0A\00", align 1
@.str.193 = private unnamed_addr constant [62 x i8] c"\09-v     : toggle printing verbose information [default = %s]\0A\00", align 1

; Function Attrs: nounwind uwtable
define internal i32 @IoCommandReadPlaMo(ptr noundef %0, i32 noundef %1, ptr noundef %2) #0 {
  %4 = alloca i32, align 4
  %5 = alloca ptr, align 8
  %6 = alloca i32, align 4
  %7 = alloca ptr, align 8
  %8 = alloca ptr, align 8
  %9 = alloca i32, align 4
  %10 = alloca i32, align 4
  %11 = alloca i32, align 4
  %12 = alloca i32, align 4
  store ptr %0, ptr %5, align 8, !tbaa !3
  store i32 %1, ptr %6, align 4, !tbaa !8
  store ptr %2, ptr %7, align 8, !tbaa !10
  call void @llvm.lifetime.start.p0(i64 8, ptr %8) #11
  call void @llvm.lifetime.start.p0(i64 4, ptr %9) #11
  call void @llvm.lifetime.start.p0(i64 4, ptr %10) #11
  store i32 0, ptr %10, align 4, !tbaa !8
  call void @llvm.lifetime.start.p0(i64 4, ptr %11) #11
  store i32 0, ptr %11, align 4, !tbaa !8
  call void (...) @Extra_UtilGetoptReset()
  br label %13

13:                                               ; preds = %28, %3
  %14 = load i32, ptr %6, align 4, !tbaa !8
  %15 = load ptr, ptr %7, align 8, !tbaa !10
  %16 = call i32 @Extra_UtilGetopt(i32 noundef %14, ptr noundef %15, ptr noundef @.str.189)
  store i32 %16, ptr %9, align 4, !tbaa !8
  %17 = icmp ne i32 %16, -1
  br i1 %17, label %18, label %29

18:                                               ; preds = %13
  %19 = load i32, ptr %9, align 4, !tbaa !8
  switch i32 %19, label %27 [
    i32 109, label %20
    i32 118, label %23
    i32 104, label %26
  ]

20:                                               ; preds = %18
  %21 = load i32, ptr %10, align 4, !tbaa !8
  %22 = xor i32 %21, 1
  store i32 %22, ptr %10, align 4, !tbaa !8
  br label %28

23:                                               ; preds = %18
  %24 = load i32, ptr %11, align 4, !tbaa !8
  %25 = xor i32 %24, 1
  store i32 %25, ptr %11, align 4, !tbaa !8
  br label %28

26:                                               ; preds = %18
  br label %51

27:                                               ; preds = %18
  br label %51

28:                                               ; preds = %23, %20
  br label %13, !llvm.loop !66

29:                                               ; preds = %13
  %30 = load i32, ptr %6, align 4, !tbaa !8
  %31 = load i32, ptr @globalUtilOptind, align 4, !tbaa !8
  %32 = add nsw i32 %31, 1
  %33 = icmp ne i32 %30, %32
  br i1 %33, label %34, label %35

34:                                               ; preds = %29
  br label %51

35:                                               ; preds = %29
  %36 = load ptr, ptr %7, align 8, !tbaa !10
  %37 = load i32, ptr @globalUtilOptind, align 4, !tbaa !8
  %38 = sext i32 %37 to i64
  %39 = getelementptr inbounds ptr, ptr %36, i64 %38
  %40 = load ptr, ptr %39, align 8, !tbaa !14
  %41 = load i32, ptr %10, align 4, !tbaa !8
  %42 = load i32, ptr %11, align 4, !tbaa !8
  %43 = call ptr @Mop_ManTest(ptr noundef %40, i32 noundef %41, i32 noundef %42)
  store ptr %43, ptr %8, align 8, !tbaa !18
  %44 = load ptr, ptr %8, align 8, !tbaa !18
  %45 = icmp eq ptr %44, null
  br i1 %45, label %46, label %47

46:                                               ; preds = %35
  store i32 1, ptr %4, align 4
  store i32 1, ptr %12, align 4
  br label %82

47:                                               ; preds = %35
  %48 = load ptr, ptr %5, align 8, !tbaa !3
  %49 = load ptr, ptr %8, align 8, !tbaa !18
  call void @Abc_FrameReplaceCurrentNetwork(ptr noundef %48, ptr noundef %49)
  %50 = load ptr, ptr %5, align 8, !tbaa !3
  call void @Abc_FrameClearVerifStatus(ptr noundef %50)
  store i32 0, ptr %4, align 4
  store i32 1, ptr %12, align 4
  br label %82

51:                                               ; preds = %34, %27, %26
  %52 = load ptr, ptr %5, align 8, !tbaa !3
  %53 = getelementptr inbounds nuw %struct.Abc_Frame_t_, ptr %52, i32 0, i32 21
  %54 = load ptr, ptr %53, align 8, !tbaa !24
  %55 = call i32 (ptr, ptr, ...) @fprintf(ptr noundef %54, ptr noundef @.str.190) #11
  %56 = load ptr, ptr %5, align 8, !tbaa !3
  %57 = getelementptr inbounds nuw %struct.Abc_Frame_t_, ptr %56, i32 0, i32 21
  %58 = load ptr, ptr %57, align 8, !tbaa !24
  %59 = call i32 (ptr, ptr, ...) @fprintf(ptr noundef %58, ptr noundef @.str.191) #11
  %60 = load ptr, ptr %5, align 8, !tbaa !3
  %61 = getelementptr inbounds nuw %struct.Abc_Frame_t_, ptr %60, i32 0, i32 21
  %62 = load ptr, ptr %61, align 8, !tbaa !24
  %63 = load i32, ptr %10, align 4, !tbaa !8
  %64 = icmp ne i32 %63, 0
  %65 = select i1 %64, ptr @.str.113, ptr @.str.114
  %66 = call i32 (ptr, ptr, ...) @fprintf(ptr noundef %62, ptr noundef @.str.192, ptr noundef %65) #11
  %67 = load ptr, ptr %5, align 8, !tbaa !3
  %68 = getelementptr inbounds nuw %struct.Abc_Frame_t_, ptr %67, i32 0, i32 21
  %69 = load ptr, ptr %68, align 8, !tbaa !24
  %70 = load i32, ptr %11, align 4, !tbaa !8
  %71 = icmp ne i32 %70, 0
  %72 = select i1 %71, ptr @.str.113, ptr @.str.114
  %73 = call i32 (ptr, ptr, ...) @fprintf(ptr noundef %69, ptr noundef @.str.193, ptr noundef %72) #11
  %74 = load ptr, ptr %5, align 8, !tbaa !3
  %75 = getelementptr inbounds nuw %struct.Abc_Frame_t_, ptr %74, i32 0, i32 21
  %76 = load ptr, ptr %75, align 8, !tbaa !24
  %77 = call i32 (ptr, ptr, ...) @fprintf(ptr noundef %76, ptr noundef @.str.118) #11
  %78 = load ptr, ptr %5, align 8, !tbaa !3
  %79 = getelementptr inbounds nuw %struct.Abc_Frame_t_, ptr %78, i32 0, i32 21
  %80 = load ptr, ptr %79, align 8, !tbaa !24
  %81 = call i32 (ptr, ptr, ...) @fprintf(ptr noundef %80, ptr noundef @.str.119) #11
  store i32 1, ptr %4, align 4
  store i32 1, ptr %12, align 4
  br label %82

82:                                               ; preds = %51, %47, %46
  call void @llvm.lifetime.end.p0(i64 4, ptr %11) #11
  call void @llvm.lifetime.end.p0(i64 4, ptr %10) #11
  call void @llvm.lifetime.end.p0(i64 4, ptr %9) #11
  call void @llvm.lifetime.end.p0(i64 8, ptr %8) #11
  %83 = load i32, ptr %4, align 4
  ret i32 %83
}