; Function Attrs: nounwind uwtable
define internal range(i32 0, 2) i32 @IoCommandReadPlaMo(ptr noundef %0, i32 noundef %1, ptr noundef %2) #0 {
  tail call void (...) @Extra_UtilGetoptReset() #18
  br label %.outer

.outer:                                           ; preds = %6, %3
  %.021.ph = phi i32 [ %7, %6 ], [ 0, %3 ]
  %.0.ph = phi i32 [ %.0, %6 ], [ 0, %3 ]
  br label %4

4:                                                ; preds = %.outer, %8
  %.0 = phi i32 [ %9, %8 ], [ %.0.ph, %.outer ]
  %5 = tail call i32 @Extra_UtilGetopt(i32 noundef %1, ptr noundef %2, ptr noundef nonnull @.str.189) #18
  switch i32 %5, label %.loopexit [
    i32 -1, label %10
    i32 109, label %6
    i32 118, label %8
  ]

6:                                                ; preds = %4
  %7 = xor i32 %.021.ph, 1
  br label %.outer, !llvm.loop !63

8:                                                ; preds = %4
  %9 = xor i32 %.0, 1
  br label %4, !llvm.loop !63

10:                                               ; preds = %4
  %11 = load i32, ptr @globalUtilOptind, align 4, !tbaa !3
  %12 = add nsw i32 %11, 1
  %.not26 = icmp eq i32 %1, %12
  br i1 %.not26, label %13, label %.loopexit

13:                                               ; preds = %10
  %14 = sext i32 %11 to i64
  %15 = getelementptr inbounds ptr, ptr %2, i64 %14
  %16 = load ptr, ptr %15, align 8, !tbaa !9
  %17 = tail call ptr @Mop_ManTest(ptr noundef %16, i32 noundef %.021.ph, i32 noundef %.0) #18
  %18 = icmp eq ptr %17, null
  br i1 %18, label %35, label %19

19:                                               ; preds = %13
  tail call void @Abc_FrameReplaceCurrentNetwork(ptr noundef %0, ptr noundef nonnull %17) #18
  tail call void @Abc_FrameClearVerifStatus(ptr noundef %0) #18
  br label %35

.loopexit:                                        ; preds = %4, %10
  %20 = getelementptr inbounds nuw i8, ptr %0, i64 136
  %21 = load ptr, ptr %20, align 8, !tbaa !34
  %22 = tail call i64 @fwrite(ptr nonnull @.str.190, i64 32, i64 1, ptr %21)
  %23 = load ptr, ptr %20, align 8, !tbaa !34
  %24 = tail call i64 @fwrite(ptr nonnull @.str.191, i64 48, i64 1, ptr %23)
  %25 = load ptr, ptr %20, align 8, !tbaa !34
  %.not27 = icmp eq i32 %.021.ph, 0
  %26 = select i1 %.not27, ptr @.str.114, ptr @.str.113
  %27 = tail call i32 (ptr, ptr, ...) @fprintf(ptr noundef %25, ptr noundef nonnull @.str.192, ptr noundef nonnull %26) #18
  %28 = load ptr, ptr %20, align 8, !tbaa !34
  %.not28 = icmp eq i32 %.0, 0
  %29 = select i1 %.not28, ptr @.str.114, ptr @.str.113
  %30 = tail call i32 (ptr, ptr, ...) @fprintf(ptr noundef %28, ptr noundef nonnull @.str.193, ptr noundef nonnull %29) #18
  %31 = load ptr, ptr %20, align 8, !tbaa !34
  %32 = tail call i64 @fwrite(ptr nonnull @.str.118, i64 37, i64 1, ptr %31)
  %33 = load ptr, ptr %20, align 8, !tbaa !34
  %34 = tail call i64 @fwrite(ptr nonnull @.str.119, i64 37, i64 1, ptr %33)
  br label %35

35:                                               ; preds = %13, %.loopexit, %19
  %.023 = phi i32 [ 1, %.loopexit ], [ 0, %19 ], [ 1, %13 ]
  ret i32 %.023
}